; ModuleID = '51/490.c'
source_filename = "51/490.c"
target datalayout = "e-m:e-p270:32:32-p271:32:32-p272:64:64-i64:64-f80:128-n8:16:32:64-S128"
target triple = "x86_64-pc-linux-gnu"

@.str = private unnamed_addr constant [3 x i8] c"%d\00", align 1
@.str.1 = private unnamed_addr constant [3 x i8] c"%s\00", align 1
@.str.2 = private unnamed_addr constant [3 x i8] c"NO\00", align 1
@.str.3 = private unnamed_addr constant [4 x i8] c"%d\0A\00", align 1
@.str.4 = private unnamed_addr constant [4 x i8] c"%s\0A\00", align 1

; Function Attrs: noinline nounwind uwtable
define dso_local i32 @main() #0 {
  %1 = alloca i32, align 4
  %2 = alloca [501 x i8], align 16
  %3 = alloca i32, align 4
  %4 = alloca i32, align 4
  %5 = alloca i32, align 4
  %6 = alloca [500 x [5 x i8]], align 16
  %7 = alloca [5 x i8], align 1
  %8 = alloca [500 x i32], align 16
  %9 = alloca i32, align 4
  %10 = alloca i32, align 4
  %11 = alloca i32, align 4
  %12 = alloca i32, align 4
  %13 = alloca i32, align 4
  %14 = alloca i32, align 4
  store i32 0, i32* %1, align 4
  %15 = bitcast [501 x i8]* %2 to i8*
  call void @llvm.memset.p0i8.i64(i8* align 16 %15, i8 0, i64 501, i1 false)
  %16 = call i32 (i8*, ...) @__isoc99_scanf(i8* getelementptr inbounds ([3 x i8], [3 x i8]* @.str, i64 0, i64 0), i32* %3)
  %17 = getelementptr inbounds [501 x i8], [501 x i8]* %2, i64 0, i64 0
  %18 = call i32 (i8*, ...) @__isoc99_scanf(i8* getelementptr inbounds ([3 x i8], [3 x i8]* @.str.1, i64 0, i64 0), i8* %17)
  store i32 0, i32* %4, align 4
  store i32 0, i32* %5, align 4
  %19 = bitcast [500 x [5 x i8]]* %6 to i8*
  call void @llvm.memset.p0i8.i64(i8* align 16 %19, i8 0, i64 2500, i1 false)
  %20 = getelementptr inbounds [501 x i8], [501 x i8]* %2, i64 0, i64 0
  %21 = call i64 @strlen(i8* %20) #4
  %22 = trunc i64 %21 to i32
  store i32 %22, i32* %4, align 4
  %23 = bitcast [500 x i32]* %8 to i8*
  call void @llvm.memset.p0i8.i64(i8* align 16 %23, i8 0, i64 2000, i1 false)
  store i32 0, i32* %9, align 4
  br label %24

24:                                               ; preds = %53, %0
  store i32 0, i32* %10, align 4
  %25 = load i32, i32* %5, align 4
  store i32 %25, i32* %9, align 4
  br label %26

26:                                               ; preds = %45, %24
  %27 = load i32, i32* %9, align 4
  %28 = load i32, i32* %3, align 4
  %29 = load i32, i32* %5, align 4
  %30 = add nsw i32 %28, %29
  %31 = icmp slt i32 %27, %30
  br i1 %31, label %32, label %48

32:                                               ; preds = %26
  %33 = load i32, i32* %9, align 4
  %34 = sext i32 %33 to i64
  %35 = getelementptr inbounds [501 x i8], [501 x i8]* %2, i64 0, i64 %34
  %36 = load i8, i8* %35, align 1
  %37 = load i32, i32* %5, align 4
  %38 = sext i32 %37 to i64
  %39 = getelementptr inbounds [500 x [5 x i8]], [500 x [5 x i8]]* %6, i64 0, i64 %38
  %40 = load i32, i32* %10, align 4
  %41 = sext i32 %40 to i64
  %42 = getelementptr inbounds [5 x i8], [5 x i8]* %39, i64 0, i64 %41
  store i8 %36, i8* %42, align 1
  %43 = load i32, i32* %10, align 4
  %44 = add nsw i32 %43, 1
  store i32 %44, i32* %10, align 4
  br label %45

45:                                               ; preds = %32
  %46 = load i32, i32* %9, align 4
  %47 = add nsw i32 %46, 1
  store i32 %47, i32* %9, align 4
  br label %26

48:                                               ; preds = %26
  %49 = load i32, i32* %5, align 4
  %50 = add nsw i32 %49, 1
  store i32 %50, i32* %5, align 4
  %51 = load i32, i32* %4, align 4
  %52 = add nsw i32 %51, -1
  store i32 %52, i32* %4, align 4
  br label %53

53:                                               ; preds = %48
  %54 = load i32, i32* %4, align 4
  %55 = load i32, i32* %3, align 4
  %56 = icmp sge i32 %54, %55
  br i1 %56, label %24, label %57

57:                                               ; preds = %53
  store i32 0, i32* %11, align 4
  br label %58

58:                                               ; preds = %105, %57
  store i32 0, i32* %9, align 4
  br label %59

59:                                               ; preds = %99, %58
  %60 = load i32, i32* %9, align 4
  %61 = load i32, i32* %5, align 4
  %62 = icmp slt i32 %60, %61
  br i1 %62, label %63, label %102

63:                                               ; preds = %59
  %64 = load i32, i32* %9, align 4
  %65 = sext i32 %64 to i64
  %66 = getelementptr inbounds [500 x [5 x i8]], [500 x [5 x i8]]* %6, i64 0, i64 %65
  %67 = getelementptr inbounds [5 x i8], [5 x i8]* %66, i64 0, i64 0
  %68 = load i32, i32* %11, align 4
  %69 = sext i32 %68 to i64
  %70 = getelementptr inbounds [500 x [5 x i8]], [500 x [5 x i8]]* %6, i64 0, i64 %69
  %71 = getelementptr inbounds [5 x i8], [5 x i8]* %70, i64 0, i64 0
  %72 = call i32 @strcmp(i8* %67, i8* %71) #4
  %73 = icmp eq i32 %72, 0
  br i1 %73, label %74, label %98

74:                                               ; preds = %63
  %75 = load i32, i32* %11, align 4
  %76 = load i32, i32* %9, align 4
  %77 = icmp ne i32 %75, %76
  br i1 %77, label %78, label %98

78:                                               ; preds = %74
  %79 = load i32, i32* %11, align 4
  %80 = sext i32 %79 to i64
  %81 = getelementptr inbounds [500 x i32], [500 x i32]* %8, i64 0, i64 %80
  %82 = load i32, i32* %81, align 4
  %83 = add nsw i32 %82, 1
  store i32 %83, i32* %81, align 4
  store i32 0, i32* %12, align 4
  store i32 0, i32* %12, align 4
  br label %84

84:                                               ; preds = %94, %78
  %85 = load i32, i32* %12, align 4
  %86 = icmp slt i32 %85, 5
  br i1 %86, label %87, label %97

87:                                               ; preds = %84
  %88 = load i32, i32* %9, align 4
  %89 = sext i32 %88 to i64
  %90 = getelementptr inbounds [500 x [5 x i8]], [500 x [5 x i8]]* %6, i64 0, i64 %89
  %91 = load i32, i32* %12, align 4
  %92 = sext i32 %91 to i64
  %93 = getelementptr inbounds [5 x i8], [5 x i8]* %90, i64 0, i64 %92
  store i8 48, i8* %93, align 1
  br label %94

94:                                               ; preds = %87
  %95 = load i32, i32* %12, align 4
  %96 = add nsw i32 %95, 1
  store i32 %96, i32* %12, align 4
  br label %84

97:                                               ; preds = %84
  br label %98

98:                                               ; preds = %97, %74, %63
  br label %99

99:                                               ; preds = %98
  %100 = load i32, i32* %9, align 4
  %101 = add nsw i32 %100, 1
  store i32 %101, i32* %9, align 4
  br label %59

102:                                              ; preds = %59
  %103 = load i32, i32* %11, align 4
  %104 = add nsw i32 %103, 1
  store i32 %104, i32* %11, align 4
  br label %105

105:                                              ; preds = %102
  %106 = load i32, i32* %11, align 4
  %107 = load i32, i32* %5, align 4
  %108 = sub nsw i32 %107, 2
  %109 = icmp slt i32 %106, %108
  br i1 %109, label %58, label %110

110:                                              ; preds = %105
  store i32 0, i32* %14, align 4
  store i32 0, i32* %13, align 4
  br label %111

111:                                              ; preds = %128, %110
  %112 = load i32, i32* %13, align 4
  %113 = load i32, i32* %5, align 4
  %114 = icmp slt i32 %112, %113
  br i1 %114, label %115, label %131

115:                                              ; preds = %111
  %116 = load i32, i32* %13, align 4
  %117 = sext i32 %116 to i64
  %118 = getelementptr inbounds [500 x i32], [500 x i32]* %8, i64 0, i64 %117
  %119 = load i32, i32* %118, align 4
  %120 = load i32, i32* %14, align 4
  %121 = icmp sge i32 %119, %120
  br i1 %121, label %122, label %127

122:                                              ; preds = %115
  %123 = load i32, i32* %13, align 4
  %124 = sext i32 %123 to i64
  %125 = getelementptr inbounds [500 x i32], [500 x i32]* %8, i64 0, i64 %124
  %126 = load i32, i32* %125, align 4
  store i32 %126, i32* %14, align 4
  br label %127

127:                                              ; preds = %122, %115
  br label %128

128:                                              ; preds = %127
  %129 = load i32, i32* %13, align 4
  %130 = add nsw i32 %129, 1
  store i32 %130, i32* %13, align 4
  br label %111

131:                                              ; preds = %111
  %132 = load i32, i32* %14, align 4
  %133 = icmp eq i32 %132, 0
  br i1 %133, label %134, label %136

134:                                              ; preds = %131
  %135 = call i32 (i8*, ...) @printf(i8* getelementptr inbounds ([3 x i8], [3 x i8]* @.str.2, i64 0, i64 0))
  store i32 0, i32* %1, align 4
  br label %161

136:                                              ; preds = %131
  %137 = load i32, i32* %14, align 4
  %138 = add nsw i32 %137, 1
  %139 = call i32 (i8*, ...) @printf(i8* getelementptr inbounds ([4 x i8], [4 x i8]* @.str.3, i64 0, i64 0), i32 %138)
  store i32 0, i32* %13, align 4
  br label %140

140:                                              ; preds = %158, %136
  %141 = load i32, i32* %13, align 4
  %142 = load i32, i32* %5, align 4
  %143 = icmp slt i32 %141, %142
  br i1 %143, label %144, label %161

144:                                              ; preds = %140
  %145 = load i32, i32* %13, align 4
  %146 = sext i32 %145 to i64
  %147 = getelementptr inbounds [500 x i32], [500 x i32]* %8, i64 0, i64 %146
  %148 = load i32, i32* %147, align 4
  %149 = load i32, i32* %14, align 4
  %150 = icmp eq i32 %148, %149
  br i1 %150, label %151, label %157

151:                                              ; preds = %144
  %152 = load i32, i32* %13, align 4
  %153 = sext i32 %152 to i64
  %154 = getelementptr inbounds [500 x [5 x i8]], [500 x [5 x i8]]* %6, i64 0, i64 %153
  %155 = getelementptr inbounds [5 x i8], [5 x i8]* %154, i64 0, i64 0
  %156 = call i32 (i8*, ...) @printf(i8* getelementptr inbounds ([4 x i8], [4 x i8]* @.str.4, i64 0, i64 0), i8* %155)
  br label %157

157:                                              ; preds = %151, %144
  br label %158

158:                                              ; preds = %157
  %159 = load i32, i32* %13, align 4
  %160 = add nsw i32 %159, 1
  store i32 %160, i32* %13, align 4
  br label %140

161:                                              ; preds = %134, %140
  %162 = load i32, i32* %1, align 4
  ret i32 %162
}

; Function Attrs: argmemonly nounwind willreturn
declare void @llvm.memset.p0i8.i64(i8* nocapture writeonly, i8, i64, i1 immarg) #1

declare dso_local i32 @__isoc99_scanf(i8*, ...) #2

; Function Attrs: nounwind readonly
declare dso_local i64 @strlen(i8*) #3

; Function Attrs: nounwind readonly
declare dso_local i32 @strcmp(i8*, i8*) #3

declare dso_local i32 @printf(i8*, ...) #2


!llvm.module.flags = !{!0}
!llvm.ident = !{!1}

!0 = !{i32 1, !"wchar_size", i32 4}
!1 = !{!"clang version 10.0.0-4ubuntu1 "}
